target datalayout = "e-m:e-p270:32:32-p271:32:32-p272:64:64-i64:64-i128:128-f80:128-n8:16:32:64-S128"
target triple = "x86_64-pc-linux-gnu"

%struct._output_fields = type { i8, i8, i8, i8, i8, ptr, ptr, ptr, ptr, ptr, i8, i8, i8 }
%struct._GPtrArray = type { ptr, i32 }

@__func__.output_fields_prime_edt = private unnamed_addr constant [24 x i8] c"output_fields_prime_edt\00", align 1

; Function Attrs: null_pointer_is_valid sspstrong uwtable
define void @output_fields_prime_edt(ptr noundef %0, ptr noundef %1) #0 {
  %3 = alloca ptr, align 8
  %4 = alloca ptr, align 8
  %5 = alloca i64, align 8
  %6 = alloca ptr, align 8
  %7 = alloca ptr, align 8
  store ptr %0, ptr %3, align 8
  store ptr %1, ptr %4, align 8
  %8 = load ptr, ptr %4, align 8
  %9 = getelementptr inbounds nuw %struct._output_fields, ptr %8, i32 0, i32 5
  %10 = load ptr, ptr %9, align 8
  %11 = icmp ne ptr %10, null
  br i1 %11, label %12, label %69

12:                                               ; preds = %2
  %13 = load ptr, ptr %4, align 8
  %14 = getelementptr inbounds nuw %struct._output_fields, ptr %13, i32 0, i32 5
  %15 = load ptr, ptr %14, align 8
  %16 = load ptr, ptr %3, align 8
  call void @g_ptr_array_foreach(ptr noundef %15, ptr noundef @output_field_prime_edt, ptr noundef %16)
  %17 = load ptr, ptr %4, align 8
  %18 = getelementptr inbounds nuw %struct._output_fields, ptr %17, i32 0, i32 6
  %19 = load ptr, ptr %18, align 8
  %20 = icmp eq ptr %19, null
  br i1 %20, label %21, label %64

21:                                               ; preds = %12
  %22 = load ptr, ptr %4, align 8
  %23 = getelementptr inbounds nuw %struct._output_fields, ptr %22, i32 0, i32 5
  %24 = load ptr, ptr %23, align 8
  %25 = getelementptr inbounds nuw %struct._GPtrArray, ptr %24, i32 0, i32 1
  %26 = load i32, ptr %25, align 8
  %27 = call ptr @g_ptr_array_new_full(i32 noundef %26, ptr noundef @dfilter_free_cb)
  %28 = load ptr, ptr %4, align 8
  %29 = getelementptr inbounds nuw %struct._output_fields, ptr %28, i32 0, i32 6
  store ptr %27, ptr %29, align 8
  call void @llvm.lifetime.start.p0(i64 8, ptr %5) #15
  store i64 0, ptr %5, align 8
  br label %30

30:                                               ; preds = %60, %21
  %31 = load i64, ptr %5, align 8
  %32 = load ptr, ptr %4, align 8
  %33 = getelementptr inbounds nuw %struct._output_fields, ptr %32, i32 0, i32 5
  %34 = load ptr, ptr %33, align 8
  %35 = getelementptr inbounds nuw %struct._GPtrArray, ptr %34, i32 0, i32 1
  %36 = load i32, ptr %35, align 8
  %37 = zext i32 %36 to i64
  %38 = icmp ult i64 %31, %37
  br i1 %38, label %40, label %39

39:                                               ; preds = %30
  call void @llvm.lifetime.end.p0(i64 8, ptr %5) #15
  br label %63

40:                                               ; preds = %30
  call void @llvm.lifetime.start.p0(i64 8, ptr %6) #15
  %41 = load ptr, ptr %4, align 8
  %42 = getelementptr inbounds nuw %struct._output_fields, ptr %41, i32 0, i32 5
  %43 = load ptr, ptr %42, align 8
  %44 = getelementptr inbounds nuw %struct._GPtrArray, ptr %43, i32 0, i32 0
  %45 = load ptr, ptr %44, align 8
  %46 = load i64, ptr %5, align 8
  %47 = getelementptr ptr, ptr %45, i64 %46
  %48 = load ptr, ptr %47, align 8
  store ptr %48, ptr %6, align 8
  call void @llvm.lifetime.start.p0(i64 8, ptr %7) #15
  store ptr null, ptr %7, align 8
  %49 = load ptr, ptr %6, align 8
  %50 = call ptr @proto_registrar_get_byname(ptr noundef %49)
  %51 = icmp ne ptr %50, null
  br i1 %51, label %55, label %52

52:                                               ; preds = %40
  %53 = load ptr, ptr %6, align 8
  %54 = call zeroext i1 @dfilter_compile_full(ptr noundef %53, ptr noundef %7, ptr noundef null, i32 noundef 38, ptr noundef @__func__.output_fields_prime_edt)
  br label %55

55:                                               ; preds = %52, %40
  %56 = load ptr, ptr %4, align 8
  %57 = getelementptr inbounds nuw %struct._output_fields, ptr %56, i32 0, i32 6
  %58 = load ptr, ptr %57, align 8
  %59 = load ptr, ptr %7, align 8
  call void @g_ptr_array_add(ptr noundef %58, ptr noundef %59)
  call void @llvm.lifetime.end.p0(i64 8, ptr %7) #15
  call void @llvm.lifetime.end.p0(i64 8, ptr %6) #15
  br label %60

60:                                               ; preds = %55
  %61 = load i64, ptr %5, align 8
  %62 = add i64 %61, 1
  store i64 %62, ptr %5, align 8
  br label %30, !llvm.loop !34

63:                                               ; preds = %39
  br label %64

64:                                               ; preds = %63, %12
  %65 = load ptr, ptr %4, align 8
  %66 = getelementptr inbounds nuw %struct._output_fields, ptr %65, i32 0, i32 6
  %67 = load ptr, ptr %66, align 8
  %68 = load ptr, ptr %3, align 8
  call void @g_ptr_array_foreach(ptr noundef %67, ptr noundef @output_field_dfilter_prime_edt, ptr noundef %68)
  br label %69

69:                                               ; preds = %64, %2
  ret void
}