; Function Attrs: null_pointer_is_valid sspstrong uwtable
define void @output_fields_prime_edt(ptr noundef %0, ptr noundef captures(none) %1) local_unnamed_addr #0 {
  %3 = alloca ptr, align 8
  %4 = getelementptr inbounds nuw i8, ptr %1, i64 8
  %5 = load ptr, ptr %4, align 8
  %.not = icmp eq ptr %5, null
  br i1 %.not, label %35, label %6

6:                                                ; preds = %2
  tail call void @g_ptr_array_foreach(ptr noundef nonnull %5, ptr noundef nonnull @output_field_prime_edt, ptr noundef %0)
  %7 = getelementptr inbounds nuw i8, ptr %1, i64 16
  %8 = load ptr, ptr %7, align 8
  %9 = icmp eq ptr %8, null
  br i1 %9, label %10, label %.loopexit

10:                                               ; preds = %6
  %11 = load ptr, ptr %4, align 8
  %12 = getelementptr inbounds nuw i8, ptr %11, i64 8
  %13 = load i32, ptr %12, align 8
  %14 = tail call ptr @g_ptr_array_new_full(i32 noundef %13, ptr noundef nonnull @dfilter_free_cb)
  store ptr %14, ptr %7, align 8
  %15 = load ptr, ptr %4, align 8
  %16 = getelementptr inbounds nuw i8, ptr %15, i64 8
  %17 = load i32, ptr %16, align 8
  %.not18 = icmp eq i32 %17, 0
  br i1 %.not18, label %.loopexit, label %.lr.ph

.lr.ph:                                           ; preds = %10, %25
  %18 = phi ptr [ %29, %25 ], [ %15, %10 ]
  %.017 = phi i64 [ %28, %25 ], [ 0, %10 ]
  %19 = load ptr, ptr %18, align 8
  %20 = getelementptr ptr, ptr %19, i64 %.017
  %21 = load ptr, ptr %20, align 8
  call void @llvm.lifetime.start.p0(i64 8, ptr nonnull %3) #21
  store ptr null, ptr %3, align 8
  %22 = call ptr @proto_registrar_get_byname(ptr noundef %21)
  %.not16 = icmp eq ptr %22, null
  br i1 %.not16, label %23, label %25

23:                                               ; preds = %.lr.ph
  %24 = call zeroext i1 @dfilter_compile_full(ptr noundef %21, ptr noundef nonnull %3, ptr noundef null, i32 noundef 38, ptr noundef nonnull @__func__.output_fields_prime_edt)
  br label %25

25:                                               ; preds = %23, %.lr.ph
  %26 = load ptr, ptr %7, align 8
  %27 = load ptr, ptr %3, align 8
  call void @g_ptr_array_add(ptr noundef %26, ptr noundef %27)
  call void @llvm.lifetime.end.p0(i64 8, ptr nonnull %3) #21
  %28 = add nuw nsw i64 %.017, 1
  %29 = load ptr, ptr %4, align 8
  %30 = getelementptr inbounds nuw i8, ptr %29, i64 8
  %31 = load i32, ptr %30, align 8
  %32 = zext i32 %31 to i64
  %33 = icmp samesign ult i64 %28, %32
  br i1 %33, label %.lr.ph, label %.loopexit.loopexit, !llvm.loop !39

.loopexit.loopexit:                               ; preds = %25
  %.pre = load ptr, ptr %7, align 8
  br label %.loopexit

.loopexit:                                        ; preds = %.loopexit.loopexit, %10, %6
  %34 = phi ptr [ %.pre, %.loopexit.loopexit ], [ %14, %10 ], [ %8, %6 ]
  call void @g_ptr_array_foreach(ptr noundef %34, ptr noundef nonnull @output_field_dfilter_prime_edt, ptr noundef %0)
  br label %35

35:                                               ; preds = %.loopexit, %2
  ret void
}